target datalayout = "e-m:e-p270:32:32-p271:32:32-p272:64:64-i64:64-i128:128-f80:128-n8:16:32:64-S128"
target triple = "x86_64-unknown-linux-gnu"

%"class.std::__shared_count" = type { ptr }
%"class.proxygen::PersistentQuicTokenCache" = type { %"class.quic::QuicTokenCache", %"class.wangle::FilePersistentCache" }
%"class.quic::QuicTokenCache" = type { ptr }
%"class.wangle::FilePersistentCache" = type { %"class.wangle::PersistentCache", %"class.std::shared_ptr.0" }
%"class.wangle::PersistentCache" = type { ptr }
%"class.std::shared_ptr.0" = type { %"class.std::__shared_ptr.1" }
%"class.std::__shared_ptr.1" = type { ptr, %"class.std::__shared_count" }

; Function Attrs: mustprogress nounwind uwtable
define linkonce_odr noundef ptr @_ZNKSt12__shared_ptrIN6wangle18LRUPersistentCacheINSt7__cxx1112basic_stringIcSt11char_traitsIcESaIcEEES7_St5mutexEELN9__gnu_cxx12_Lock_policyE2EE3getEv(ptr noundef nonnull align 8 dereferenceable(16) %this) #1 comdat align 2 {
entry:
  %this.addr = alloca ptr, align 8
  store ptr %this, ptr %this.addr, align 8
  %this1 = load ptr, ptr %this.addr, align 8
  %_M_ptr = getelementptr inbounds %"class.std::__shared_ptr.1", ptr %this1, i32 0, i32 0
  %0 = load ptr, ptr %_M_ptr, align 8
  ret ptr %0
}

; Function Attrs: mustprogress nounwind uwtable
define linkonce_odr noundef ptr @_ZNKSt19__shared_ptr_accessIN6wangle18LRUPersistentCacheINSt7__cxx1112basic_stringIcSt11char_traitsIcESaIcEEES7_St5mutexEELN9__gnu_cxx12_Lock_policyE2ELb0ELb0EE6_M_getEv(ptr noundef nonnull align 1 dereferenceable(1) %this) #1 comdat align 2 {
entry:
  %this.addr = alloca ptr, align 8
  store ptr %this, ptr %this.addr, align 8
  %this1 = load ptr, ptr %this.addr, align 8
  %call = call noundef ptr @_ZNKSt12__shared_ptrIN6wangle18LRUPersistentCacheINSt7__cxx1112basic_stringIcSt11char_traitsIcESaIcEEES7_St5mutexEELN9__gnu_cxx12_Lock_policyE2EE3getEv(ptr noundef nonnull align 8 dereferenceable(16) %this1) #23
  ret ptr %call
}

; Function Attrs: mustprogress nounwind uwtable
define linkonce_odr noundef ptr @_ZNKSt19__shared_ptr_accessIN6wangle18LRUPersistentCacheINSt7__cxx1112basic_stringIcSt11char_traitsIcESaIcEEES7_St5mutexEELN9__gnu_cxx12_Lock_policyE2ELb0ELb0EEptEv(ptr noundef nonnull align 1 dereferenceable(1) %this) #1 comdat align 2 {
entry:
  %this.addr = alloca ptr, align 8
  store ptr %this, ptr %this.addr, align 8
  %this1 = load ptr, ptr %this.addr, align 8
  %call = call noundef ptr @_ZNKSt19__shared_ptr_accessIN6wangle18LRUPersistentCacheINSt7__cxx1112basic_stringIcSt11char_traitsIcESaIcEEES7_St5mutexEELN9__gnu_cxx12_Lock_policyE2ELb0ELb0EE6_M_getEv(ptr noundef nonnull align 1 dereferenceable(1) %this1) #23
  ret ptr %call
}

; Function Attrs: mustprogress uwtable
define linkonce_odr noundef zeroext i1 @_ZN6wangle19FilePersistentCacheINSt7__cxx1112basic_stringIcSt11char_traitsIcESaIcEEES6_St5mutexE6removeERKS6_(ptr noundef nonnull align 8 dereferenceable(24) %this, ptr noundef nonnull align 8 dereferenceable(32) %key) unnamed_addr #0 comdat align 2 {
entry:
  %this.addr = alloca ptr, align 8
  %key.addr = alloca ptr, align 8
  store ptr %this, ptr %this.addr, align 8
  store ptr %key, ptr %key.addr, align 8
  %this1 = load ptr, ptr %this.addr, align 8
  %cache_ = getelementptr inbounds %"class.wangle::FilePersistentCache", ptr %this1, i32 0, i32 1
  %call = call noundef ptr @_ZNKSt19__shared_ptr_accessIN6wangle18LRUPersistentCacheINSt7__cxx1112basic_stringIcSt11char_traitsIcESaIcEEES7_St5mutexEELN9__gnu_cxx12_Lock_policyE2ELb0ELb0EEptEv(ptr noundef nonnull align 1 dereferenceable(1) %cache_) #23
  %0 = load ptr, ptr %key.addr, align 8
  %vtable = load ptr, ptr %call, align 8
  %vfn = getelementptr inbounds ptr, ptr %vtable, i64 4
  %1 = load ptr, ptr %vfn, align 8
  %call2 = call noundef zeroext i1 %1(ptr noundef nonnull align 8 dereferenceable(397) %call, ptr noundef nonnull align 8 dereferenceable(32) %0)
  ret i1 %call2
}

; Function Attrs: mustprogress uwtable
define void @_ZN8proxygen24PersistentQuicTokenCache11removeTokenERKNSt7__cxx1112basic_stringIcSt11char_traitsIcESaIcEEE(ptr noundef nonnull align 8 dereferenceable(32) %this, ptr noundef nonnull align 8 dereferenceable(32) %hostname) unnamed_addr #0 align 2 {
entry:
  %this.addr = alloca ptr, align 8
  %hostname.addr = alloca ptr, align 8
  store ptr %this, ptr %this.addr, align 8
  store ptr %hostname, ptr %hostname.addr, align 8
  %this1 = load ptr, ptr %this.addr, align 8
  %cache_ = getelementptr inbounds %"class.proxygen::PersistentQuicTokenCache", ptr %this1, i32 0, i32 1
  %0 = load ptr, ptr %hostname.addr, align 8
  %call = call noundef zeroext i1 @_ZN6wangle19FilePersistentCacheINSt7__cxx1112basic_stringIcSt11char_traitsIcESaIcEEES6_St5mutexE6removeERKS6_(ptr noundef nonnull align 8 dereferenceable(24) %cache_, ptr noundef nonnull align 8 dereferenceable(32) %0)
  ret void
}