; Function Attrs: mustprogress uwtable
define void @_ZN8proxygen24PersistentQuicTokenCache11removeTokenERKNSt7__cxx1112basic_stringIcSt11char_traitsIcESaIcEEE(ptr nocapture noundef nonnull readonly align 8 dereferenceable(32) %this, ptr noundef nonnull align 8 dereferenceable(32) %hostname) unnamed_addr #0 align 2 {
entry:
  %cache_.i = getelementptr inbounds i8, ptr %this, i64 16
  %0 = load ptr, ptr %cache_.i, align 8
  %vtable.i = load ptr, ptr %0, align 8
  %vfn.i = getelementptr inbounds i8, ptr %vtable.i, i64 32
  %1 = load ptr, ptr %vfn.i, align 8
  %call2.i = tail call noundef zeroext i1 %1(ptr noundef nonnull align 8 dereferenceable(397) %0, ptr noundef nonnull align 8 dereferenceable(32) %hostname)
  ret void
}